target datalayout = "e-m:e-p270:32:32-p271:32:32-p272:64:64-i64:64-i128:128-f80:128-n8:16:32:64-S128"
target triple = "x86_64-pc-linux-gnu"

@.str.109 = private unnamed_addr constant [2 x i8] c"\22\00", align 1
@.str.110 = private unnamed_addr constant [4 x i8] c"ci(\00", align 1

; Function Attrs: null_pointer_is_valid sspstrong uwtable
define internal void @mgcp_caller_id(ptr noundef %0, ptr noundef %1) #0 {
  %3 = alloca ptr, align 8
  %4 = alloca ptr, align 8
  %5 = alloca ptr, align 8
  %6 = alloca i32, align 4
  store ptr %0, ptr %3, align 8
  store ptr %1, ptr %4, align 8
  call void @llvm.lifetime.start.p0(i64 8, ptr %5) #16
  %7 = load ptr, ptr %3, align 8
  %8 = icmp eq ptr %7, null
  br i1 %8, label %9, label %10

9:                                                ; preds = %2
  store i32 1, ptr %6, align 4
  br label %32

10:                                               ; preds = %2
  %11 = load ptr, ptr %3, align 8
  %12 = call ptr @g_strsplit(ptr noundef %11, ptr noundef @.str.109, i32 noundef 3)
  store ptr %12, ptr %5, align 8
  %13 = load ptr, ptr %5, align 8
  %14 = call i32 @g_strv_length(ptr noundef %13)
  %15 = icmp eq i32 %14, 3
  br i1 %15, label %16, label %30

16:                                               ; preds = %10
  %17 = load ptr, ptr %5, align 8
  %18 = getelementptr ptr, ptr %17, i64 0
  %19 = load ptr, ptr %18, align 8
  %20 = call ptr @strstr(ptr noundef %19, ptr noundef @.str.110) #19
  %21 = icmp ne ptr %20, null
  br i1 %21, label %22, label %30

22:                                               ; preds = %16
  %23 = load ptr, ptr %4, align 8
  %24 = load ptr, ptr %23, align 8
  call void @g_free(ptr noundef %24)
  %25 = load ptr, ptr %5, align 8
  %26 = getelementptr ptr, ptr %25, i64 1
  %27 = load ptr, ptr %26, align 8
  %28 = call noalias ptr @g_strdup(ptr noundef %27)
  %29 = load ptr, ptr %4, align 8
  store ptr %28, ptr %29, align 8
  br label %30

30:                                               ; preds = %22, %16, %10
  %31 = load ptr, ptr %5, align 8
  call void @g_strfreev(ptr noundef %31)
  store i32 0, ptr %6, align 4
  br label %32

32:                                               ; preds = %30, %9
  call void @llvm.lifetime.end.p0(i64 8, ptr %5) #16
  %33 = load i32, ptr %6, align 4
  switch i32 %33, label %35 [
    i32 0, label %34
    i32 1, label %34
  ]

34:                                               ; preds = %32, %32
  ret void

35:                                               ; preds = %32
  unreachable
}