; Function Attrs: null_pointer_is_valid sspstrong uwtable
define internal fastcc void @mgcp_caller_id(ptr noundef %0, ptr noundef captures(none) %1) unnamed_addr #0 {
  %3 = icmp eq ptr %0, null
  br i1 %3, label %17, label %4

4:                                                ; preds = %2
  %5 = tail call ptr @g_strsplit(ptr noundef nonnull %0, ptr noundef nonnull @.str.109, i32 noundef 3)
  %6 = tail call i32 @g_strv_length(ptr noundef %5)
  %7 = icmp eq i32 %6, 3
  br i1 %7, label %8, label %16

8:                                                ; preds = %4
  %9 = load ptr, ptr %5, align 8
  %10 = tail call ptr @strstr(ptr noundef %9, ptr noundef nonnull dereferenceable(1) @.str.110) #15
  %.not = icmp eq ptr %10, null
  br i1 %.not, label %16, label %11

11:                                               ; preds = %8
  %12 = load ptr, ptr %1, align 8
  tail call void @g_free(ptr noundef %12)
  %13 = getelementptr i8, ptr %5, i64 8
  %14 = load ptr, ptr %13, align 8
  %15 = tail call noalias ptr @g_strdup(ptr noundef %14)
  store ptr %15, ptr %1, align 8
  br label %16

16:                                               ; preds = %11, %8, %4
  tail call void @g_strfreev(ptr noundef %5)
  br label %17

17:                                               ; preds = %2, %16
  ret void
}